target datalayout = "e-m:e-p270:32:32-p271:32:32-p272:64:64-i64:64-i128:128-f80:128-n8:16:32:64-S128"
target triple = "x86_64-pc-linux-gnu"

; Function Attrs: nounwind sspstrong uwtable
define internal void @gdb_chr_receive(ptr noundef %0, ptr noundef %1, i32 noundef %2) #0 {
  %4 = alloca ptr, align 8
  %5 = alloca ptr, align 8
  %6 = alloca i32, align 4
  %7 = alloca i32, align 4
  store ptr %0, ptr %4, align 8
  store ptr %1, ptr %5, align 8
  store i32 %2, ptr %6, align 4
  call void @llvm.lifetime.start.p0(i64 4, ptr %7) #14
  store i32 0, ptr %7, align 4, !annotation !4
  store i32 0, ptr %7, align 4
  br label %8

8:                                                ; preds = %18, %3
  %9 = load i32, ptr %7, align 4
  %10 = load i32, ptr %6, align 4
  %11 = icmp slt i32 %9, %10
  br i1 %11, label %12, label %21

12:                                               ; preds = %8
  %13 = load ptr, ptr %5, align 8
  %14 = load i32, ptr %7, align 4
  %15 = sext i32 %14 to i64
  %16 = getelementptr inbounds i8, ptr %13, i64 %15
  %17 = load i8, ptr %16, align 1
  call void @gdb_read_byte(i8 noundef zeroext %17)
  br label %18

18:                                               ; preds = %12
  %19 = load i32, ptr %7, align 4
  %20 = add i32 %19, 1
  store i32 %20, ptr %7, align 4
  br label %8, !llvm.loop !9

21:                                               ; preds = %8
  call void @llvm.lifetime.end.p0(i64 4, ptr %7) #14
  ret void
}