; Function Attrs: nounwind sspstrong uwtable
define internal void @gdb_chr_receive(ptr readnone captures(none) %0, ptr noundef readonly captures(none) %1, i32 noundef %2) #2 {
  %4 = icmp sgt i32 %2, 0
  br i1 %4, label %.lr.ph.preheader, label %._crit_edge

.lr.ph.preheader:                                 ; preds = %3
  %wide.trip.count = zext nneg i32 %2 to i64
  br label %.lr.ph

.lr.ph:                                           ; preds = %.lr.ph.preheader, %.lr.ph
  %indvars.iv = phi i64 [ 0, %.lr.ph.preheader ], [ %indvars.iv.next, %.lr.ph ]
  %5 = getelementptr inbounds nuw i8, ptr %1, i64 %indvars.iv
  %6 = load i8, ptr %5, align 1
  tail call void @gdb_read_byte(i8 noundef zeroext %6) #16
  %indvars.iv.next = add nuw nsw i64 %indvars.iv, 1
  %exitcond.not = icmp eq i64 %indvars.iv.next, %wide.trip.count
  br i1 %exitcond.not, label %._crit_edge, label %.lr.ph, !llvm.loop !9

._crit_edge:                                      ; preds = %.lr.ph, %3
  ret void
}